target datalayout = "e-m:e-p270:32:32-p271:32:32-p272:64:64-i64:64-i128:128-f80:128-n8:16:32:64-S128"
target triple = "x86_64-pc-linux-gnu"

@.str.63 = private unnamed_addr constant [5 x i8] c" \09\0D\0A\00", align 1
@.str.64 = private unnamed_addr constant [2 x i8] c"=\00", align 1
@.str.65 = private unnamed_addr constant [2 x i8] c";\00", align 1

; Function Attrs: nounwind uwtable
define internal void @get_word_until_chars(ptr noundef %0, i32 noundef %1, ptr noundef %2, ptr noundef %3) #0 {
  %5 = alloca ptr, align 8
  %6 = alloca i32, align 4
  %7 = alloca ptr, align 8
  %8 = alloca ptr, align 8
  %9 = alloca ptr, align 8
  %10 = alloca ptr, align 8
  store ptr %0, ptr %5, align 8, !tbaa !10
  store i32 %1, ptr %6, align 4, !tbaa !12
  store ptr %2, ptr %7, align 8, !tbaa !10
  store ptr %3, ptr %8, align 8, !tbaa !4
  call void @llvm.lifetime.start.p0(i64 8, ptr %9) #13
  call void @llvm.lifetime.start.p0(i64 8, ptr %10) #13
  %11 = load ptr, ptr %8, align 8, !tbaa !4
  %12 = load ptr, ptr %11, align 8, !tbaa !10
  store ptr %12, ptr %9, align 8, !tbaa !10
  %13 = load ptr, ptr %9, align 8, !tbaa !10
  %14 = call i64 @strspn(ptr noundef %13, ptr noundef @.str.63) #12
  %15 = load ptr, ptr %9, align 8, !tbaa !10
  %16 = getelementptr inbounds nuw i8, ptr %15, i64 %14
  store ptr %16, ptr %9, align 8, !tbaa !10
  %17 = load ptr, ptr %5, align 8, !tbaa !10
  store ptr %17, ptr %10, align 8, !tbaa !10
  br label %18

18:                                               ; preds = %47, %4
  %19 = load ptr, ptr %7, align 8, !tbaa !10
  %20 = load ptr, ptr %9, align 8, !tbaa !10
  %21 = load i8, ptr %20, align 1, !tbaa !14
  %22 = sext i8 %21 to i32
  %23 = call ptr @strchr(ptr noundef %19, i32 noundef %22) #12
  %24 = icmp ne ptr %23, null
  br i1 %24, label %30, label %25

25:                                               ; preds = %18
  %26 = load ptr, ptr %9, align 8, !tbaa !10
  %27 = load i8, ptr %26, align 1, !tbaa !14
  %28 = sext i8 %27 to i32
  %29 = icmp ne i32 %28, 0
  br label %30

30:                                               ; preds = %25, %18
  %31 = phi i1 [ false, %18 ], [ %29, %25 ]
  br i1 %31, label %32, label %50

32:                                               ; preds = %30
  %33 = load ptr, ptr %10, align 8, !tbaa !10
  %34 = load ptr, ptr %5, align 8, !tbaa !10
  %35 = ptrtoint ptr %33 to i64
  %36 = ptrtoint ptr %34 to i64
  %37 = sub i64 %35, %36
  %38 = load i32, ptr %6, align 4, !tbaa !12
  %39 = sub nsw i32 %38, 1
  %40 = sext i32 %39 to i64
  %41 = icmp slt i64 %37, %40
  br i1 %41, label %42, label %47

42:                                               ; preds = %32
  %43 = load ptr, ptr %9, align 8, !tbaa !10
  %44 = load i8, ptr %43, align 1, !tbaa !14
  %45 = load ptr, ptr %10, align 8, !tbaa !10
  %46 = getelementptr inbounds nuw i8, ptr %45, i32 1
  store ptr %46, ptr %10, align 8, !tbaa !10
  store i8 %44, ptr %45, align 1, !tbaa !14
  br label %47

47:                                               ; preds = %42, %32
  %48 = load ptr, ptr %9, align 8, !tbaa !10
  %49 = getelementptr inbounds nuw i8, ptr %48, i32 1
  store ptr %49, ptr %9, align 8, !tbaa !10
  br label %18, !llvm.loop !239

50:                                               ; preds = %30
  %51 = load i32, ptr %6, align 4, !tbaa !12
  %52 = icmp sgt i32 %51, 0
  br i1 %52, label %53, label %55

53:                                               ; preds = %50
  %54 = load ptr, ptr %10, align 8, !tbaa !10
  store i8 0, ptr %54, align 1, !tbaa !14
  br label %55

55:                                               ; preds = %53, %50
  %56 = load ptr, ptr %9, align 8, !tbaa !10
  %57 = load ptr, ptr %8, align 8, !tbaa !4
  store ptr %56, ptr %57, align 8, !tbaa !10
  call void @llvm.lifetime.end.p0(i64 8, ptr %10) #13
  call void @llvm.lifetime.end.p0(i64 8, ptr %9) #13
  ret void
}

; Function Attrs: nounwind uwtable
define internal void @get_word_sep(ptr noundef %0, i32 noundef %1, ptr noundef %2, ptr noundef %3) #0 {
  %5 = alloca ptr, align 8
  %6 = alloca i32, align 4
  %7 = alloca ptr, align 8
  %8 = alloca ptr, align 8
  store ptr %0, ptr %5, align 8, !tbaa !10
  store i32 %1, ptr %6, align 4, !tbaa !12
  store ptr %2, ptr %7, align 8, !tbaa !10
  store ptr %3, ptr %8, align 8, !tbaa !4
  %9 = load ptr, ptr %8, align 8, !tbaa !4
  %10 = load ptr, ptr %9, align 8, !tbaa !10
  %11 = load i8, ptr %10, align 1, !tbaa !14
  %12 = sext i8 %11 to i32
  %13 = icmp eq i32 %12, 47
  br i1 %13, label %14, label %18

14:                                               ; preds = %4
  %15 = load ptr, ptr %8, align 8, !tbaa !4
  %16 = load ptr, ptr %15, align 8, !tbaa !10
  %17 = getelementptr inbounds nuw i8, ptr %16, i32 1
  store ptr %17, ptr %15, align 8, !tbaa !10
  br label %18

18:                                               ; preds = %14, %4
  %19 = load ptr, ptr %5, align 8, !tbaa !10
  %20 = load i32, ptr %6, align 4, !tbaa !12
  %21 = load ptr, ptr %7, align 8, !tbaa !10
  %22 = load ptr, ptr %8, align 8, !tbaa !4
  call void @get_word_until_chars(ptr noundef %19, i32 noundef %20, ptr noundef %21, ptr noundef %22)
  ret void
}

; Function Attrs: nounwind uwtable
define i32 @ff_rtsp_next_attr_and_value(ptr noundef %0, ptr noundef %1, i32 noundef %2, ptr noundef %3, i32 noundef %4) #0 {
  %6 = alloca i32, align 4
  %7 = alloca ptr, align 8
  %8 = alloca ptr, align 8
  %9 = alloca i32, align 4
  %10 = alloca ptr, align 8
  %11 = alloca i32, align 4
  store ptr %0, ptr %7, align 8, !tbaa !4
  store ptr %1, ptr %8, align 8, !tbaa !10
  store i32 %2, ptr %9, align 4, !tbaa !12
  store ptr %3, ptr %10, align 8, !tbaa !10
  store i32 %4, ptr %11, align 4, !tbaa !12
  %12 = load ptr, ptr %7, align 8, !tbaa !4
  %13 = load ptr, ptr %12, align 8, !tbaa !10
  %14 = call i64 @strspn(ptr noundef %13, ptr noundef @.str.63) #12
  %15 = load ptr, ptr %7, align 8, !tbaa !4
  %16 = load ptr, ptr %15, align 8, !tbaa !10
  %17 = getelementptr inbounds nuw i8, ptr %16, i64 %14
  store ptr %17, ptr %15, align 8, !tbaa !10
  %18 = load ptr, ptr %7, align 8, !tbaa !4
  %19 = load ptr, ptr %18, align 8, !tbaa !10
  %20 = load i8, ptr %19, align 1, !tbaa !14
  %21 = icmp ne i8 %20, 0
  br i1 %21, label %22, label %49

22:                                               ; preds = %5
  %23 = load ptr, ptr %8, align 8, !tbaa !10
  %24 = load i32, ptr %9, align 4, !tbaa !12
  %25 = load ptr, ptr %7, align 8, !tbaa !4
  call void @get_word_sep(ptr noundef %23, i32 noundef %24, ptr noundef @.str.64, ptr noundef %25)
  %26 = load ptr, ptr %7, align 8, !tbaa !4
  %27 = load ptr, ptr %26, align 8, !tbaa !10
  %28 = load i8, ptr %27, align 1, !tbaa !14
  %29 = sext i8 %28 to i32
  %30 = icmp eq i32 %29, 61
  br i1 %30, label %31, label %35

31:                                               ; preds = %22
  %32 = load ptr, ptr %7, align 8, !tbaa !4
  %33 = load ptr, ptr %32, align 8, !tbaa !10
  %34 = getelementptr inbounds nuw i8, ptr %33, i32 1
  store ptr %34, ptr %32, align 8, !tbaa !10
  br label %35

35:                                               ; preds = %31, %22
  %36 = load ptr, ptr %10, align 8, !tbaa !10
  %37 = load i32, ptr %11, align 4, !tbaa !12
  %38 = load ptr, ptr %7, align 8, !tbaa !4
  call void @get_word_sep(ptr noundef %36, i32 noundef %37, ptr noundef @.str.65, ptr noundef %38)
  %39 = load ptr, ptr %7, align 8, !tbaa !4
  %40 = load ptr, ptr %39, align 8, !tbaa !10
  %41 = load i8, ptr %40, align 1, !tbaa !14
  %42 = sext i8 %41 to i32
  %43 = icmp eq i32 %42, 59
  br i1 %43, label %44, label %48

44:                                               ; preds = %35
  %45 = load ptr, ptr %7, align 8, !tbaa !4
  %46 = load ptr, ptr %45, align 8, !tbaa !10
  %47 = getelementptr inbounds nuw i8, ptr %46, i32 1
  store ptr %47, ptr %45, align 8, !tbaa !10
  br label %48

48:                                               ; preds = %44, %35
  store i32 1, ptr %6, align 4
  br label %50

49:                                               ; preds = %5
  store i32 0, ptr %6, align 4
  br label %50

50:                                               ; preds = %49, %48
  %51 = load i32, ptr %6, align 4
  ret i32 %51
}