; Function Attrs: nofree norecurse nounwind memory(read, argmem: readwrite, inaccessiblemem: none) uwtable
define range(i32 0, 2) i32 @ff_rtsp_next_attr_and_value(ptr noundef captures(none) %0, ptr noundef %1, i32 noundef %2, ptr noundef %3, i32 noundef %4) local_unnamed_addr #0 {
  %6 = load ptr, ptr %0, align 8, !tbaa !4
  %7 = tail call i64 @strspn(ptr noundef %6, ptr noundef nonnull @.str.63) #14
  %8 = getelementptr inbounds nuw i8, ptr %6, i64 %7
  store ptr %8, ptr %0, align 8, !tbaa !4
  %9 = load i8, ptr %8, align 1, !tbaa !9
  switch i8 %9, label %12 [
    i8 0, label %66
    i8 47, label %10
  ]

10:                                               ; preds = %5
  %11 = getelementptr inbounds nuw i8, ptr %8, i64 1
  store ptr %11, ptr %0, align 8, !tbaa !4
  br label %12

12:                                               ; preds = %5, %10
  %13 = phi ptr [ %11, %10 ], [ %8, %5 ]
  %14 = tail call i64 @strspn(ptr noundef nonnull %13, ptr noundef nonnull @.str.63) #14
  %15 = getelementptr inbounds nuw i8, ptr %13, i64 %14
  %16 = load i8, ptr %15, align 1, !tbaa !9
  switch i8 %16, label %.lr.ph.i.i [
    i8 61, label %.critedge.i.i
    i8 0, label %.critedge.i.i
  ]

.lr.ph.i.i:                                       ; preds = %12
  %17 = ptrtoint ptr %1 to i64
  %18 = add nsw i32 %2, -1
  %19 = sext i32 %18 to i64
  br label %20

20:                                               ; preds = %27, %.lr.ph.i.i
  %21 = phi i8 [ %16, %.lr.ph.i.i ], [ %29, %27 ]
  %.022.i.i = phi ptr [ %1, %.lr.ph.i.i ], [ %.1.i.i, %27 ]
  %.01621.i.i = phi ptr [ %15, %.lr.ph.i.i ], [ %28, %27 ]
  %22 = ptrtoint ptr %.022.i.i to i64
  %23 = sub i64 %22, %17
  %24 = icmp slt i64 %23, %19
  br i1 %24, label %25, label %27

25:                                               ; preds = %20
  %26 = getelementptr inbounds nuw i8, ptr %.022.i.i, i64 1
  store i8 %21, ptr %.022.i.i, align 1, !tbaa !9
  br label %27

27:                                               ; preds = %25, %20
  %.1.i.i = phi ptr [ %26, %25 ], [ %.022.i.i, %20 ]
  %28 = getelementptr inbounds nuw i8, ptr %.01621.i.i, i64 1
  %29 = load i8, ptr %28, align 1, !tbaa !9
  switch i8 %29, label %20 [
    i8 61, label %.critedge.i.i
    i8 0, label %.critedge.i.i
  ]

.critedge.i.i:                                    ; preds = %27, %27, %12, %12
  %.016.lcssa.i.i = phi ptr [ %15, %12 ], [ %15, %12 ], [ %28, %27 ], [ %28, %27 ]
  %.0.lcssa.i.i = phi ptr [ %1, %12 ], [ %1, %12 ], [ %.1.i.i, %27 ], [ %.1.i.i, %27 ]
  %30 = icmp sgt i32 %2, 0
  br i1 %30, label %31, label %get_word_sep.exit

31:                                               ; preds = %.critedge.i.i
  store i8 0, ptr %.0.lcssa.i.i, align 1, !tbaa !9
  br label %get_word_sep.exit

get_word_sep.exit:                                ; preds = %.critedge.i.i, %31
  store ptr %.016.lcssa.i.i, ptr %0, align 8, !tbaa !4
  %32 = load i8, ptr %.016.lcssa.i.i, align 1, !tbaa !9
  %33 = icmp eq i8 %32, 61
  br i1 %33, label %34, label %36

34:                                               ; preds = %get_word_sep.exit
  %35 = getelementptr inbounds nuw i8, ptr %.016.lcssa.i.i, i64 1
  store ptr %35, ptr %0, align 8, !tbaa !4
  %.pre = load i8, ptr %35, align 1, !tbaa !9
  br label %36

36:                                               ; preds = %34, %get_word_sep.exit
  %37 = phi i8 [ %.pre, %34 ], [ %32, %get_word_sep.exit ]
  %38 = phi ptr [ %35, %34 ], [ %.016.lcssa.i.i, %get_word_sep.exit ]
  %39 = icmp eq i8 %37, 47
  br i1 %39, label %40, label %42

40:                                               ; preds = %36
  %41 = getelementptr inbounds nuw i8, ptr %38, i64 1
  store ptr %41, ptr %0, align 8, !tbaa !4
  br label %42

42:                                               ; preds = %40, %36
  %43 = phi ptr [ %41, %40 ], [ %38, %36 ]
  %44 = tail call i64 @strspn(ptr noundef nonnull %43, ptr noundef nonnull @.str.63) #14
  %45 = getelementptr inbounds nuw i8, ptr %43, i64 %44
  %46 = load i8, ptr %45, align 1, !tbaa !9
  switch i8 %46, label %.lr.ph.i.i16 [
    i8 59, label %.critedge.i.i23
    i8 0, label %.critedge.i.i23
  ]

.lr.ph.i.i16:                                     ; preds = %42
  %47 = ptrtoint ptr %3 to i64
  %48 = add nsw i32 %4, -1
  %49 = sext i32 %48 to i64
  br label %50

50:                                               ; preds = %57, %.lr.ph.i.i16
  %51 = phi i8 [ %46, %.lr.ph.i.i16 ], [ %59, %57 ]
  %.022.i.i17 = phi ptr [ %3, %.lr.ph.i.i16 ], [ %.1.i.i19, %57 ]
  %.01621.i.i18 = phi ptr [ %45, %.lr.ph.i.i16 ], [ %58, %57 ]
  %52 = ptrtoint ptr %.022.i.i17 to i64
  %53 = sub i64 %52, %47
  %54 = icmp slt i64 %53, %49
  br i1 %54, label %55, label %57

55:                                               ; preds = %50
  %56 = getelementptr inbounds nuw i8, ptr %.022.i.i17, i64 1
  store i8 %51, ptr %.022.i.i17, align 1, !tbaa !9
  br label %57

57:                                               ; preds = %55, %50
  %.1.i.i19 = phi ptr [ %56, %55 ], [ %.022.i.i17, %50 ]
  %58 = getelementptr inbounds nuw i8, ptr %.01621.i.i18, i64 1
  %59 = load i8, ptr %58, align 1, !tbaa !9
  switch i8 %59, label %50 [
    i8 59, label %.critedge.i.i23
    i8 0, label %.critedge.i.i23
  ]

.critedge.i.i23:                                  ; preds = %57, %57, %42, %42
  %.016.lcssa.i.i24 = phi ptr [ %45, %42 ], [ %45, %42 ], [ %58, %57 ], [ %58, %57 ]
  %.0.lcssa.i.i25 = phi ptr [ %3, %42 ], [ %3, %42 ], [ %.1.i.i19, %57 ], [ %.1.i.i19, %57 ]
  %60 = icmp sgt i32 %4, 0
  br i1 %60, label %61, label %get_word_sep.exit26

61:                                               ; preds = %.critedge.i.i23
  store i8 0, ptr %.0.lcssa.i.i25, align 1, !tbaa !9
  br label %get_word_sep.exit26

get_word_sep.exit26:                              ; preds = %.critedge.i.i23, %61
  store ptr %.016.lcssa.i.i24, ptr %0, align 8, !tbaa !4
  %62 = load i8, ptr %.016.lcssa.i.i24, align 1, !tbaa !9
  %63 = icmp eq i8 %62, 59
  br i1 %63, label %64, label %66

64:                                               ; preds = %get_word_sep.exit26
  %65 = getelementptr inbounds nuw i8, ptr %.016.lcssa.i.i24, i64 1
  store ptr %65, ptr %0, align 8, !tbaa !4
  br label %66

66:                                               ; preds = %5, %get_word_sep.exit26, %64
  %.0 = phi i32 [ 1, %64 ], [ 1, %get_word_sep.exit26 ], [ 0, %5 ]
  ret i32 %.0
}